; Function Attrs: mustprogress uwtable
define hidden void @_ZN7unifier8save_varERK11expr_offsetS2_(ptr nocapture noundef nonnull readonly align 8 dereferenceable(57) %this, ptr nocapture noundef nonnull readonly align 8 dereferenceable(12) %p, ptr nocapture noundef nonnull readonly align 8 dereferenceable(12) %t) local_unnamed_addr #4 align 2 {
entry:
  %0 = load ptr, ptr %p, align 8
  %m_kind.i.i = getelementptr inbounds i8, ptr %0, i64 4
  %bf.load.i.i = load i32, ptr %m_kind.i.i, align 4
  %bf.clear.i.i = and i32 %bf.load.i.i, 65535
  %cmp.i = icmp eq i32 %bf.clear.i.i, 1
  br i1 %cmp.i, label %if.then, label %if.end

if.then:                                          ; preds = %entry
  %m_offset.i = getelementptr inbounds i8, ptr %p, i64 8
  %1 = load i32, ptr %m_offset.i, align 8
  %m_subst = getelementptr inbounds i8, ptr %this, i64 8
  %2 = load ptr, ptr %m_subst, align 8
  %m_idx.i = getelementptr inbounds i8, ptr %0, i64 16
  %3 = load i32, ptr %m_idx.i, align 8
  %m_vars.i = getelementptr inbounds i8, ptr %2, i64 32
  %4 = load ptr, ptr %m_vars.i, align 8
  %cmp.i.i = icmp eq ptr %4, null
  br i1 %cmp.i.i, label %if.then.i.i, label %lor.lhs.false.i.i

lor.lhs.false.i.i:                                ; preds = %if.then
  %arrayidx.i.i = getelementptr inbounds i8, ptr %4, i64 -4
  %5 = load i32, ptr %arrayidx.i.i, align 4
  %arrayidx4.i.i = getelementptr inbounds i8, ptr %4, i64 -8
  %6 = load i32, ptr %arrayidx4.i.i, align 4
  %cmp5.i.i = icmp eq i32 %5, %6
  br i1 %cmp5.i.i, label %if.then.i.i, label %_ZN6vectorISt4pairIjjELb0EjE9push_backEOS1_.exit.i

if.then.i.i:                                      ; preds = %lor.lhs.false.i.i, %if.then
  tail call void @_ZN6vectorISt4pairIjjELb0EjE13expand_vectorEv(ptr noundef nonnull align 8 dereferenceable(8) %m_vars.i)
  %.pre.i.i = load ptr, ptr %m_vars.i, align 8
  %arrayidx8.phi.trans.insert.i.i = getelementptr inbounds i8, ptr %.pre.i.i, i64 -4
  %.pre1.i.i = load i32, ptr %arrayidx8.phi.trans.insert.i.i, align 4
  br label %_ZN6vectorISt4pairIjjELb0EjE9push_backEOS1_.exit.i

_ZN6vectorISt4pairIjjELb0EjE9push_backEOS1_.exit.i: ; preds = %if.then.i.i, %lor.lhs.false.i.i
  %7 = phi i32 [ %.pre1.i.i, %if.then.i.i ], [ %5, %lor.lhs.false.i.i ]
  %8 = phi ptr [ %.pre.i.i, %if.then.i.i ], [ %4, %lor.lhs.false.i.i ]
  %idx.ext.i.i = zext i32 %7 to i64
  %add.ptr.i.i = getelementptr inbounds %"struct.std::pair.19", ptr %8, i64 %idx.ext.i.i
  %ref.tmp.sroa.2.0.insert.ext.i = zext i32 %1 to i64
  %ref.tmp.sroa.2.0.insert.shift.i = shl nuw i64 %ref.tmp.sroa.2.0.insert.ext.i, 32
  %ref.tmp.sroa.0.0.insert.ext.i = zext i32 %3 to i64
  %ref.tmp.sroa.0.0.insert.insert.i = or disjoint i64 %ref.tmp.sroa.2.0.insert.shift.i, %ref.tmp.sroa.0.0.insert.ext.i
  store i64 %ref.tmp.sroa.0.0.insert.insert.i, ptr %add.ptr.i.i, align 4
  %9 = load ptr, ptr %m_vars.i, align 8
  %arrayidx10.i.i = getelementptr inbounds i8, ptr %9, i64 -4
  %10 = load i32, ptr %arrayidx10.i.i, align 4
  %inc.i.i = add i32 %10, 1
  store i32 %inc.i.i, ptr %arrayidx10.i.i, align 4
  %11 = load ptr, ptr %t, align 8
  %tobool.not.i.i.i.i.i = icmp eq ptr %11, null
  br i1 %tobool.not.i.i.i.i.i, label %_ZN15ref_vector_coreI4expr19ref_manager_wrapperIS0_11ast_managerEE7inc_refEPS0_.exit.i.i, label %if.then.i.i.i.i.i

if.then.i.i.i.i.i:                                ; preds = %_ZN6vectorISt4pairIjjELb0EjE9push_backEOS1_.exit.i
  %m_ref_count.i.i.i.i.i.i = getelementptr inbounds i8, ptr %11, i64 8
  %12 = load i32, ptr %m_ref_count.i.i.i.i.i.i, align 4
  %inc.i.i.i.i.i.i = add i32 %12, 1
  store i32 %inc.i.i.i.i.i.i, ptr %m_ref_count.i.i.i.i.i.i, align 4
  br label %_ZN15ref_vector_coreI4expr19ref_manager_wrapperIS0_11ast_managerEE7inc_refEPS0_.exit.i.i

_ZN15ref_vector_coreI4expr19ref_manager_wrapperIS0_11ast_managerEE7inc_refEPS0_.exit.i.i: ; preds = %if.then.i.i.i.i.i, %_ZN6vectorISt4pairIjjELb0EjE9push_backEOS1_.exit.i
  %m_nodes.i.i = getelementptr inbounds i8, ptr %2, i64 48
  %13 = load ptr, ptr %m_nodes.i.i, align 8
  %cmp.i.i.i = icmp eq ptr %13, null
  br i1 %cmp.i.i.i, label %if.then.i.i.i, label %lor.lhs.false.i.i.i

lor.lhs.false.i.i.i:                              ; preds = %_ZN15ref_vector_coreI4expr19ref_manager_wrapperIS0_11ast_managerEE7inc_refEPS0_.exit.i.i
  %arrayidx.i.i.i = getelementptr inbounds i8, ptr %13, i64 -4
  %14 = load i32, ptr %arrayidx.i.i.i, align 4
  %arrayidx4.i.i.i = getelementptr inbounds i8, ptr %13, i64 -8
  %15 = load i32, ptr %arrayidx4.i.i.i, align 4
  %cmp5.i.i.i = icmp eq i32 %14, %15
  br i1 %cmp5.i.i.i, label %if.then.i.i.i, label %_ZN12substitution6insertEjjRK11expr_offset.exit

if.then.i.i.i:                                    ; preds = %lor.lhs.false.i.i.i, %_ZN15ref_vector_coreI4expr19ref_manager_wrapperIS0_11ast_managerEE7inc_refEPS0_.exit.i.i
  tail call void @_ZN6vectorIP4exprLb0EjE13expand_vectorEv(ptr noundef nonnull align 8 dereferenceable(8) %m_nodes.i.i)
  %.pre.i.i.i = load ptr, ptr %m_nodes.i.i, align 8
  %arrayidx8.phi.trans.insert.i.i.i = getelementptr inbounds i8, ptr %.pre.i.i.i, i64 -4
  %.pre1.i.i.i = load i32, ptr %arrayidx8.phi.trans.insert.i.i.i, align 4
  br label %_ZN12substitution6insertEjjRK11expr_offset.exit

_ZN12substitution6insertEjjRK11expr_offset.exit:  ; preds = %lor.lhs.false.i.i.i, %if.then.i.i.i
  %16 = phi i32 [ %.pre1.i.i.i, %if.then.i.i.i ], [ %14, %lor.lhs.false.i.i.i ]
  %17 = phi ptr [ %.pre.i.i.i, %if.then.i.i.i ], [ %13, %lor.lhs.false.i.i.i ]
  %idx.ext.i.i.i = zext i32 %16 to i64
  %add.ptr.i.i.i = getelementptr inbounds ptr, ptr %17, i64 %idx.ext.i.i.i
  store ptr %11, ptr %add.ptr.i.i.i, align 8
  %18 = load ptr, ptr %m_nodes.i.i, align 8
  %arrayidx10.i.i.i = getelementptr inbounds i8, ptr %18, i64 -4
  %19 = load i32, ptr %arrayidx10.i.i.i, align 4
  %inc.i.i.i = add i32 %19, 1
  store i32 %inc.i.i.i, ptr %arrayidx10.i.i.i, align 4
  %m_subst.i = getelementptr inbounds i8, ptr %2, i64 8
  %m_num_vars.i.i = getelementptr inbounds i8, ptr %2, i64 20
  %20 = load i32, ptr %m_num_vars.i.i, align 4
  %mul.i.i = mul i32 %20, %1
  %add.i.i = add i32 %mul.i.i, %3
  %21 = load ptr, ptr %m_subst.i, align 8
  %idxprom.i.i.i = zext i32 %add.i.i to i64
  %arrayidx.i.i2.i = getelementptr inbounds %"struct.var_offset_map<expr_offset>::data", ptr %21, i64 %idxprom.i.i.i
  tail call void @llvm.memcpy.p0.p0.i64(ptr noundef nonnull align 8 dereferenceable(12) %arrayidx.i.i2.i, ptr noundef nonnull align 8 dereferenceable(12) %t, i64 12, i1 false)
  %m_timestamp.i.i = getelementptr inbounds i8, ptr %2, i64 24
  %22 = load i32, ptr %m_timestamp.i.i, align 8
  %m_timestamp2.i.i = getelementptr inbounds i8, ptr %arrayidx.i.i2.i, i64 16
  store i32 %22, ptr %m_timestamp2.i.i, align 8
  %m_state.i = getelementptr inbounds i8, ptr %2, i64 120
  store i32 2, ptr %m_state.i, align 8
  br label %if.end

if.end:                                           ; preds = %_ZN12substitution6insertEjjRK11expr_offset.exit, %entry
  ret void
}